	.text
	.file	"math_modff-host-x86_64-unknown-linux-gnu.cui"
	.globl	_Z10printArrayPi        # -- Begin function _Z10printArrayPi
	.p2align	4, 0x90
	.type	_Z10printArrayPi,@function
_Z10printArrayPi:                       # @_Z10printArrayPi
	.cfi_startproc
# %bb.0:                                # %for.inc.9
	pushq	%rbx
	.cfi_def_cfa_offset 16
	.cfi_offset %rbx, -16
	movq	%rdi, %rbx
	movl	$91, %edi
	callq	putchar
	movl	(%rbx), %esi
	movl	$.L.str.1, %edi
	xorl	%eax, %eax
	callq	printf
	movl	4(%rbx), %esi
	movl	$.L.str.2, %edi
	xorl	%eax, %eax
	callq	printf
	movl	8(%rbx), %esi
	movl	$.L.str.2, %edi
	xorl	%eax, %eax
	callq	printf
	movl	12(%rbx), %esi
	movl	$.L.str.2, %edi
	xorl	%eax, %eax
	callq	printf
	movl	16(%rbx), %esi
	movl	$.L.str.2, %edi
	xorl	%eax, %eax
	callq	printf
	movl	20(%rbx), %esi
	movl	$.L.str.2, %edi
	xorl	%eax, %eax
	callq	printf
	movl	24(%rbx), %esi
	movl	$.L.str.2, %edi
	xorl	%eax, %eax
	callq	printf
	movl	28(%rbx), %esi
	movl	$.L.str.2, %edi
	xorl	%eax, %eax
	callq	printf
	movl	32(%rbx), %esi
	movl	$.L.str.2, %edi
	xorl	%eax, %eax
	callq	printf
	movl	36(%rbx), %esi
	movl	$.L.str.2, %edi
	xorl	%eax, %eax
	callq	printf
	movl	$93, %edi
	popq	%rbx
	.cfi_def_cfa_offset 8
	jmp	putchar                 # TAILCALL
.Lfunc_end0:
	.size	_Z10printArrayPi, .Lfunc_end0-_Z10printArrayPi
	.cfi_endproc
                                        # -- End function
	.globl	_Z13printHipError10hipError_t # -- Begin function _Z13printHipError10hipError_t
	.p2align	4, 0x90
	.type	_Z13printHipError10hipError_t,@function
_Z13printHipError10hipError_t:          # @_Z13printHipError10hipError_t
	.cfi_startproc
# %bb.0:                                # %entry
	pushq	%rax
	.cfi_def_cfa_offset 16
	callq	hipGetErrorString
	movl	$.L.str.4, %edi
	movq	%rax, %rsi
	xorl	%eax, %eax
	popq	%rcx
	.cfi_def_cfa_offset 8
	jmp	printf                  # TAILCALL
.Lfunc_end1:
	.size	_Z13printHipError10hipError_t, .Lfunc_end1-_Z13printHipError10hipError_t
	.cfi_endproc
                                        # -- End function
	.globl	_Z17hipCallSuccessful10hipError_t # -- Begin function _Z17hipCallSuccessful10hipError_t
	.p2align	4, 0x90
	.type	_Z17hipCallSuccessful10hipError_t,@function
_Z17hipCallSuccessful10hipError_t:      # @_Z17hipCallSuccessful10hipError_t
	.cfi_startproc
# %bb.0:                                # %entry
	pushq	%rbx
	.cfi_def_cfa_offset 16
	.cfi_offset %rbx, -16
	movl	%edi, %ebx
	testl	%edi, %edi
	je	.LBB2_2
# %bb.1:                                # %if.then
	movl	%ebx, %edi
	callq	hipGetErrorString
	movl	$.L.str.4, %edi
	movq	%rax, %rsi
	xorl	%eax, %eax
	callq	printf
.LBB2_2:                                # %if.end
	testl	%ebx, %ebx
	sete	%al
	popq	%rbx
	.cfi_def_cfa_offset 8
	retq
.Lfunc_end2:
	.size	_Z17hipCallSuccessful10hipError_t, .Lfunc_end2-_Z17hipCallSuccessful10hipError_t
	.cfi_endproc
                                        # -- End function
	.globl	_Z16deviceCanComputei   # -- Begin function _Z16deviceCanComputei
	.p2align	4, 0x90
	.type	_Z16deviceCanComputei,@function
_Z16deviceCanComputei:                  # @_Z16deviceCanComputei
	.cfi_startproc
# %bb.0:                                # %entry
	pushq	%rbx
	.cfi_def_cfa_offset 16
	subq	$432, %rsp              # imm = 0x1B0
	.cfi_def_cfa_offset 448
	.cfi_offset %rbx, -16
	movl	%edi, %esi
	movq	%rsp, %rdi
	callq	hipGetDeviceProperties
	testl	%eax, %eax
	je	.LBB3_2
# %bb.1:                                # %_Z17hipCallSuccessful10hipError_t.exit
	movl	%eax, %edi
	callq	hipGetErrorString
	xorl	%ebx, %ebx
	movl	$.L.str.4, %edi
	movq	%rax, %rsi
	xorl	%eax, %eax
	callq	printf
	movl	%ebx, %eax
	addq	$432, %rsp              # imm = 0x1B0
	.cfi_def_cfa_offset 16
	popq	%rbx
	.cfi_def_cfa_offset 8
	retq
.LBB3_2:                                # %if.then
	.cfi_def_cfa_offset 448
	movb	$1, %bl
	cmpl	$2, 348(%rsp)
	jne	.LBB3_4
# %bb.3:                                # %if.then4
	movl	$.Lstr, %edi
	callq	puts
	xorl	%ebx, %ebx
.LBB3_4:                                # %if.end6
	movl	%ebx, %eax
	addq	$432, %rsp              # imm = 0x1B0
	.cfi_def_cfa_offset 16
	popq	%rbx
	.cfi_def_cfa_offset 8
	retq
.Lfunc_end3:
	.size	_Z16deviceCanComputei, .Lfunc_end3-_Z16deviceCanComputei
	.cfi_endproc
                                        # -- End function
	.globl	_Z17deviceIsAvailablePi # -- Begin function _Z17deviceIsAvailablePi
	.p2align	4, 0x90
	.type	_Z17deviceIsAvailablePi,@function
_Z17deviceIsAvailablePi:                # @_Z17deviceIsAvailablePi
	.cfi_startproc
# %bb.0:                                # %entry
	pushq	%rbx
	.cfi_def_cfa_offset 16
	.cfi_offset %rbx, -16
	callq	hipGetDevice
	movl	%eax, %ebx
	testl	%eax, %eax
	je	.LBB4_2
# %bb.1:                                # %if.then.i
	movl	%ebx, %edi
	callq	hipGetErrorString
	movl	$.L.str.4, %edi
	movq	%rax, %rsi
	xorl	%eax, %eax
	callq	printf
.LBB4_2:                                # %_Z17hipCallSuccessful10hipError_t.exit
	testl	%ebx, %ebx
	sete	%al
	popq	%rbx
	.cfi_def_cfa_offset 8
	retq
.Lfunc_end4:
	.size	_Z17deviceIsAvailablePi, .Lfunc_end4-_Z17deviceIsAvailablePi
	.cfi_endproc
                                        # -- End function
	.globl	_Z17haveComputeDevicev  # -- Begin function _Z17haveComputeDevicev
	.p2align	4, 0x90
	.type	_Z17haveComputeDevicev,@function
_Z17haveComputeDevicev:                 # @_Z17haveComputeDevicev
	.cfi_startproc
# %bb.0:                                # %entry
	pushq	%rbx
	.cfi_def_cfa_offset 16
	subq	$448, %rsp              # imm = 0x1C0
	.cfi_def_cfa_offset 464
	.cfi_offset %rbx, -16
	movl	$0, 12(%rsp)
	leaq	12(%rsp), %rdi
	callq	hipGetDevice
	testl	%eax, %eax
	jne	.LBB5_1
# %bb.2:                                # %land.rhs
	movl	12(%rsp), %esi
	leaq	16(%rsp), %rdi
	callq	hipGetDeviceProperties
	testl	%eax, %eax
	je	.LBB5_3
.LBB5_1:                                # %_Z17deviceIsAvailablePi.exit
	movl	%eax, %edi
	callq	hipGetErrorString
	xorl	%ebx, %ebx
	movl	$.L.str.4, %edi
	movq	%rax, %rsi
	xorl	%eax, %eax
	callq	printf
.LBB5_5:                                # %land.end
	movl	%ebx, %eax
	addq	$448, %rsp              # imm = 0x1C0
	.cfi_def_cfa_offset 16
	popq	%rbx
	.cfi_def_cfa_offset 8
	retq
.LBB5_3:                                # %if.then.i
	.cfi_def_cfa_offset 464
	movb	$1, %bl
	cmpl	$2, 364(%rsp)
	jne	.LBB5_5
# %bb.4:                                # %if.then4.i
	movl	$.Lstr, %edi
	callq	puts
	xorl	%ebx, %ebx
	movl	%ebx, %eax
	addq	$448, %rsp              # imm = 0x1C0
	.cfi_def_cfa_offset 16
	popq	%rbx
	.cfi_def_cfa_offset 8
	retq
.Lfunc_end5:
	.size	_Z17haveComputeDevicev, .Lfunc_end5-_Z17haveComputeDevicev
	.cfi_endproc
                                        # -- End function
	.globl	main                    # -- Begin function main
	.p2align	4, 0x90
	.type	main,@function
main:                                   # @main
	.cfi_startproc
# %bb.0:                                # %entry
	subq	$56, %rsp
	.cfi_def_cfa_offset 64
	callq	_Z17haveComputeDevicev
	testb	%al, %al
	je	.LBB6_10
# %bb.1:                                # %for.body.preheader
	xorps	%xmm0, %xmm0
	movaps	%xmm0, 32(%rsp)
	movaps	%xmm0, 16(%rsp)
	movq	$0, 48(%rsp)
	movl	$.Lstr.2, %edi
	callq	puts
	leaq	16(%rsp), %rdi
	callq	_Z10printArrayPi
	movl	$10, %edi
	callq	putchar
	leaq	8(%rsp), %rdi
	movl	$40, %esi
	callq	hipMalloc
	testl	%eax, %eax
	je	.LBB6_3
# %bb.2:                                # %if.then6
	movl	%eax, %edi
	callq	hipGetErrorString
	movl	$.L.str.4, %edi
	movq	%rax, %rsi
	xorl	%eax, %eax
	callq	printf
	movl	$.Lstr.3, %edi
	callq	puts
	xorl	%eax, %eax
	addq	$56, %rsp
	.cfi_def_cfa_offset 8
	retq
.LBB6_10:                               # %if.then
	.cfi_def_cfa_offset 64
	movl	$.Lstr.1, %edi
	callq	puts
	xorl	%eax, %eax
	addq	$56, %rsp
	.cfi_def_cfa_offset 8
	retq
.LBB6_3:                                # %do.body
	.cfi_def_cfa_offset 64
	movabsq	$4294967297, %rdx       # imm = 0x100000001
	leaq	9(%rdx), %rdi
	movl	$1, %esi
	movl	$1, %ecx
	xorl	%r8d, %r8d
	xorl	%r9d, %r9d
	callq	hipConfigureCall
	testl	%eax, %eax
	jne	.LBB6_5
# %bb.4:                                # %kcall.configok
	movq	8(%rsp), %rdi
	movl	$10, %esi
	callq	__device_stub__Z10writeIndexPii
.LBB6_5:                                # %do.end
	movq	8(%rsp), %rsi
	leaq	16(%rsp), %rdi
	movl	$40, %edx
	movl	$2, %ecx
	callq	hipMemcpy
	testl	%eax, %eax
	je	.LBB6_6
# %bb.7:                                # %if.else
	movl	%eax, %edi
	callq	hipGetErrorString
	movl	$.L.str.4, %edi
	movq	%rax, %rsi
	xorl	%eax, %eax
	callq	printf
	movl	$.Lstr.4, %edi
	callq	puts
	jmp	.LBB6_8
.LBB6_6:                                # %if.then14
	movl	$.Lstr.5, %edi
	callq	puts
	leaq	16(%rsp), %rdi
	callq	_Z10printArrayPi
	movl	$10, %edi
	callq	putchar
.LBB6_8:                                # %if.end19
	movq	8(%rsp), %rdi
	callq	hipFree
	xorl	%eax, %eax
	addq	$56, %rsp
	.cfi_def_cfa_offset 8
	retq
.Lfunc_end6:
	.size	main, .Lfunc_end6-main
	.cfi_endproc
                                        # -- End function
	.p2align	4, 0x90         # -- Begin function __hip_module_ctor
	.type	__hip_module_ctor,@function
__hip_module_ctor:                      # @__hip_module_ctor
	.cfi_startproc
# %bb.0:                                # %entry
	pushq	%rbx
	.cfi_def_cfa_offset 16
	.cfi_offset %rbx, -16
	movq	__hip_gpubin_handle(%rip), %rbx
	testq	%rbx, %rbx
	jne	.LBB7_2
# %bb.1:                                # %if
	movl	$__hip_fatbin_wrapper, %edi
	callq	__hipRegisterFatBinary
	movq	%rax, %rbx
	movq	%rax, __hip_gpubin_handle(%rip)
.LBB7_2:                                # %exit
	movl	$__hip_device_heap, %esi
	movl	$.L__unnamed_1, %edx
	movl	$.L__unnamed_1, %ecx
	movq	%rbx, %rdi
	movl	$0, %r8d
	movl	$4194304, %r9d          # imm = 0x400000
	pushq	$0
	.cfi_adjust_cfa_offset 8
	pushq	$0
	.cfi_adjust_cfa_offset 8
	callq	__hipRegisterVar
	addq	$16, %rsp
	.cfi_adjust_cfa_offset -16
	movl	$__hip_device_page_flag, %esi
	movl	$.L__unnamed_2, %edx
	movl	$.L__unnamed_2, %ecx
	movq	%rbx, %rdi
	movl	$0, %r8d
	movl	$262144, %r9d           # imm = 0x40000
	pushq	$0
	.cfi_adjust_cfa_offset 8
	pushq	$0
	.cfi_adjust_cfa_offset 8
	callq	__hipRegisterVar
	addq	$16, %rsp
	.cfi_adjust_cfa_offset -16
	movl	$stuff, %esi
	movl	$.L__unnamed_3, %edx
	movl	$.L__unnamed_3, %ecx
	movq	%rbx, %rdi
	movl	$0, %r8d
	movl	$8, %r9d
	pushq	$0
	.cfi_adjust_cfa_offset 8
	pushq	$0
	.cfi_adjust_cfa_offset 8
	callq	__hipRegisterVar
	addq	$16, %rsp
	.cfi_adjust_cfa_offset -16
	movl	$__hip_module_dtor, %edi
	popq	%rbx
	.cfi_def_cfa_offset 8
	jmp	atexit                  # TAILCALL
.Lfunc_end7:
	.size	__hip_module_ctor, .Lfunc_end7-__hip_module_ctor
	.cfi_endproc
                                        # -- End function
	.p2align	4, 0x90         # -- Begin function __hip_module_dtor
	.type	__hip_module_dtor,@function
__hip_module_dtor:                      # @__hip_module_dtor
	.cfi_startproc
# %bb.0:                                # %entry
	pushq	%rax
	.cfi_def_cfa_offset 16
	movq	__hip_gpubin_handle(%rip), %rdi
	testq	%rdi, %rdi
	je	.LBB8_2
# %bb.1:                                # %if
	callq	__hipUnregisterFatBinary
	movq	$0, __hip_gpubin_handle(%rip)
.LBB8_2:                                # %exit
	popq	%rax
	.cfi_def_cfa_offset 8
	retq
.Lfunc_end8:
	.size	__hip_module_dtor, .Lfunc_end8-__hip_module_dtor
	.cfi_endproc
                                        # -- End function
	.type	__hip_device_heap,@object # @__hip_device_heap
	.local	__hip_device_heap
	.comm	__hip_device_heap,4194304,16
	.type	__hip_device_page_flag,@object # @__hip_device_page_flag
	.local	__hip_device_page_flag
	.comm	__hip_device_page_flag,262144,16
	.type	stuff,@object           # @stuff
	.local	stuff
	.comm	stuff,8,8
	.type	.L.str.1,@object        # @.str.1
	.section	.rodata.str1.1,"aMS",@progbits,1
.L.str.1:
	.asciz	"%d"
	.size	.L.str.1, 3

	.type	.L.str.2,@object        # @.str.2
.L.str.2:
	.asciz	", %d"
	.size	.L.str.2, 5

	.type	.L.str.4,@object        # @.str.4
.L.str.4:
	.asciz	"Hip Error: %s\n"
	.size	.L.str.4, 15

	.type	.L__unnamed_1,@object   # @0
.L__unnamed_1:
	.asciz	"__hip_device_heap"
	.size	.L__unnamed_1, 18

	.type	.L__unnamed_2,@object   # @1
.L__unnamed_2:
	.asciz	"__hip_device_page_flag"
	.size	.L__unnamed_2, 23

	.type	.L__unnamed_3,@object   # @2
.L__unnamed_3:
	.asciz	"stuff"
	.size	.L__unnamed_3, 6

	.type	.L__unnamed_4,@object   # @3
	.section	.hip_fatbin,"a",@progbits
	.p2align	3
.L__unnamed_4:
	.asciz	"__CLANG_OFFLOAD_BUNDLE__\002\000\000\000\000\000\000\000\205\000\000\000\000\000\000\000\000\000\000\000\000\000\000\000\031\000\000\000\000\000\000\000host-x86_64-unknown-linux\205\000\000\000\000\000\000\000\250\025\000\000\000\000\000\000\034\000\000\000\000\000\000\000hip-amdgcn-amd-amdhsa-gfx906\177ELF\002\001\001@\001\000\000\000\000\000\000\000\003\000\340\000\001\000\000\000\000\020\000\000\000\000\000\000@\000\000\000\000\000\000\000h\022\000\000\000\000\000\000/\000\000\000@\0008\000\b\000@\000\r\000\013\000\006\000\000\000\004\000\000\000@\000\000\000\000\000\000\000@\000\000\000\000\000\000\000@\000\000\000\000\000\000\000\370\001\000\000\000\000\000\000\370\001\000\000\000\000\000\000\b\000\000\000\000\000\000\000\001\000\000\000\004\000\000\000\000\000\000\000\000\000\000\000\000\000\000\000\000\000\000\000\000\000\000\000\000\000\000\000P\003\000\000\000\000\000\000P\003\000\000\000\000\000\000\000\020\000\000\000\000\000\000\001\000\000\000\006\000\000\000\000\020\000\000\000\000\000\000\000\020\000\000\000\000\000\000\000\020\000\000\000\000\000\000p\000\000\000\000\000\000\000p\000\000\000\000\000\000\000\000\020\000\000\000\000\000\000\001\000\000\000\006\000\000\000p\020\000\000\000\000\000\000\000 \000\000\000\000\000\000\000 \000\000\000\000\000\000\000\000\000\000\000\000\000\000\b\000D\000\000\000\000\000\000\020\000\000\000\000\000\000\002\000\000\000\006\000\000\000\000\020\000\000\000\000\000\000\000\020\000\000\000\000\000\000\000\020\000\000\000\000\000\000p\000\000\000\000\000\000\000p\000\000\000\000\000\000\000\b\000\000\000\000\000\000\000R\345td\004\000\000\000\000\020\000\000\000\000\000\000\000\020\000\000\000\000\000\000\000\020\000\000\000\000\000\000p\000\000\000\000\000\000\000\000\020\000\000\000\000\000\000\001\000\000\000\000\000\000\000Q\345td\006\000\000\000\000\000\000\000\000\000\000\000\000\000\000\000\000\000\000\000\000\000\000\000\000\000\000\000\000\000\000\000\000\000\000\000\000\000\000\000\000\000\000\000\000\000\000\000\000\000\000\000\004\000\000\000\004\000\000\0008\002\000\000\000\000\000\0008\002\000\000\000\000\000\0008\002\000\000\000\000\000\0008\000\000\000\000\000\000\0008\000\000\000\000\000\000\000\004\000\000\000\000\000\000\000\000\000\000\000\000\000\000\000\000\000\000\000\000\000\000\000\000\000\000\000\000\000\000\000\000\000\000\000\000\000\000\000\000\000\000\000\000\000\000\000\000\000\000\000\000\000\000\000\000\000\000\000\000\000\000\000\007\000\000\000#\000\000\000 \000\000\000AMDGPU\000\000\202\256amdhsa.kernels\220\256amdhsa.version\222\001\000\000\000\000\000\000\000\000\000\000\000\000\000\000\000\000\000\000\000\000\000\000\000\000\000\000\001\000\000\000!\003\b\000\000 \000\000\000\000\000\000\000\000@\000\000\000\000\000\023\000\000\000!\003\b\000\000 @\000\000\000\000\000\000\000\004\000\000\000\000\000*\000\000\000\021\003\b\000\000 D\000\000\000\000\000\b\000\000\000\000\000\000\000\001\000\000\000\001\000\000\000\001\000\000\000\032\000\000\000\022!\001\000\020\000\000\000\001\000\000\000\220+\036\004\210\246\231\222M\235a\020\004\000\000\000\004\000\000\000\001\000\000\000\000\000\000\000\003\000\000\000\002\000\000\000\000\000\000\000\000\000\000\000\000\000\000\000\000\000\000\000\000__hip_device_heap\000__hip_device_page_flag\000stuff\000\000\000\000\000\000\000\000\000\000\000\000\000\000\000\000\000\000\000\000\000\000\000\000\000\000\000\000\000\000\000\000\000\000\000\000\000\000\000\000\000\000\000\000\000\000\000\000\000\000\000\000\000\000\000\000\000\000\000\000\000\000\000\000\000\000\000\000\000\000\000\000\000\000\000\000\000\000\000\000\000\000\000\000\000\000\000\000\000\000\000\000\000\000\000\000\000\000\000\000\000\000\000\000\000\000\000\000\000\000\000\000\000\000\000\000\000\000\000\000\000\000\000\000\000\000\000\000\000\000\000\000\000\000\000\000\000\000\000\000\000\000\000\000\000\000\000\000\000\000\000\000\000\000\000\000\000\000\000\000\000\000\000\000\000\000\000\000\000\000\000\000\000\000\000\000\000\000\000\000\000\000\000\000\000\000\000\000\000\000\000\000\000\000\000\000\000\000\000\000\000\000\000\000\000\000\000\000\000\000\000\000\000\000\000\000\000\000\000\000\000\000\000\000\000\000\000\000\000\000\000\000\000\000\000\000\000\000\000\000\000\000\000\000\000\000\000\000\000\000\000\000\000\000\000\000\000\000\000\000\000\000\000\000\000\000\000\000\000\000\000\000\000\000\000\000\000\000\000\000\000\000\000\000\000\000\000\000\000\000\000\000\000\000\000\000\000\000\000\000\000\000\000\000\000\000\000\000\000\000\000\000\000\000\000\000\000\000\000\000\000\000\000\000\000\000\000\000\000\000\000\000\000\000\000\000\000\000\000\000\000\000\000\000\000\000\000\000\000\000\000\000\000\000\000\000\000\000\000\000\000\000\000\000\000\000\000\000\000\000\000\000\000\000\000\000\000\000\000\000\000\000\000\000\000\000\000\000\000\000\000\000\000\000\000\000\000\000\000\000\000\000\000\000\000\000\000\000\000\000\000\000\000\000\000\000\000\000\000\000\000\000\000\000\000\000\000\000\000\000\000\000\000\000\000\000\000\000\000\000\000\000\000\000\000\000\000\000\000\000\000\000\000\000\000\000\000\000\000\000\000\000\000\000\000\000\000\000\000\000\000\000\000\000\000\000\000\000\000\000\000\000\000\000\000\000\000\000\000\000\000\000\000\000\000\000\000\000\000\000\000\000\000\000\000\000\000\000\000\000\000\000\000\000\000\000\000\000\000\000\000\000\000\000\000\000\000\000\000\000\000\000\000\000\000\000\000\000\000\000\000\000\000\000\000\000\000\000\000\000\000\000\000\000\000\000\000\000\000\000\000\000\000\000\000\000\000\000\000\000\000\000\000\000\000\000\000\000\000\000\000\000\000\000\000\000\000\000\000\000\000\000\000\000\000\000\000\000\000\000\000\000\000\000\000\000\000\000\000\000\000\000\000\000\000\000\000\000\000\000\000\000\000\000\000\000\000\000\000\000\000\000\000\000\000\000\000\000\000\000\000\000\000\000\000\000\000\000\000\000\000\000\000\000\000\000\000\000\000\000\000\000\000\000\000\000\000\000\000\000\000\000\000\000\000\000\000\000\000\000\000\000\000\000\000\000\000\000\000\000\000\000\000\000\000\000\000\000\000\000\000\000\000\000\000\000\000\000\000\000\000\000\000\000\000\000\000\000\000\000\000\000\000\000\000\000\000\000\000\000\000\000\000\000\000\000\000\000\000\000\000\000\000\000\000\000\000\000\000\000\000\000\000\000\000\000\000\000\000\000\000\000\000\000\000\000\000\000\000\000\000\000\000\000\000\000\000\000\000\000\000\000\000\000\000\000\000\000\000\000\000\000\000\000\000\000\000\000\000\000\000\000\000\000\000\000\000\000\000\000\000\000\000\000\000\000\000\000\000\000\000\000\000\000\000\000\000\000\000\000\000\000\000\000\000\000\000\000\000\000\000\000\000\000\000\000\000\000\000\000\000\000\000\000\000\000\000\000\000\000\000\000\000\000\000\000\000\000\000\000\000\000\000\000\000\000\000\000\000\000\000\000\000\000\000\000\000\000\000\000\000\000\000\000\000\000\000\000\000\000\000\000\000\000\000\000\000\000\000\000\000\000\000\000\000\000\000\000\000\000\000\000\000\000\000\000\000\000\000\000\000\000\000\000\000\000\000\000\000\000\000\000\000\000\000\000\000\000\000\000\000\000\000\000\000\000\000\000\000\000\000\000\000\000\000\000\000\000\000\000\000\000\000\000\000\000\000\000\000\000\000\000\000\000\000\000\000\000\000\000\000\000\000\000\000\000\000\000\000\000\000\000\000\000\000\000\000\000\000\000\000\000\000\000\000\000\000\000\000\000\000\000\000\000\000\000\000\000\000\000\000\000\000\000\000\000\000\000\000\000\000\000\000\000\000\000\000\000\000\000\000\000\000\000\000\000\000\000\000\000\000\000\000\000\000\000\000\000\000\000\000\000\000\000\000\000\000\000\000\000\000\000\000\000\000\000\000\000\000\000\000\000\000\000\000\000\000\000\000\000\000\000\000\000\000\000\000\000\000\000\000\000\000\000\000\000\000\000\000\000\000\000\000\000\000\000\000\000\000\000\000\000\000\000\000\000\000\000\000\000\000\000\000\000\000\000\000\000\000\000\000\000\000\000\000\000\000\000\000\000\000\000\000\000\000\000\000\000\000\000\000\000\000\000\000\000\000\000\000\000\000\000\000\000\000\000\000\000\000\000\000\000\000\000\000\000\000\000\000\000\000\000\000\000\000\000\000\000\000\000\000\000\000\000\000\000\000\000\000\000\000\000\000\000\000\000\000\000\000\000\000\000\000\000\000\000\000\000\000\000\000\000\000\000\000\000\000\000\000\000\000\000\000\000\000\000\000\000\000\000\000\000\000\000\000\000\000\000\000\000\000\000\000\000\000\000\000\000\000\000\000\000\000\000\000\000\000\000\000\000\000\000\000\000\000\000\000\000\000\000\000\000\000\000\000\000\000\000\000\000\000\000\000\000\000\000\000\000\000\000\000\000\000\000\000\000\000\000\000\000\000\000\000\000\000\000\000\000\000\000\000\000\000\000\000\000\000\000\000\000\000\000\000\000\000\000\000\000\000\000\000\000\000\000\000\000\000\000\000\000\000\000\000\000\000\000\000\000\000\000\000\000\000\000\000\000\000\000\000\000\000\000\000\000\000\000\000\000\000\000\000\000\000\000\000\000\000\000\000\000\000\000\000\000\000\000\000\000\000\000\000\000\000\000\000\000\000\000\000\000\000\000\000\000\000\000\000\000\000\000\000\000\000\000\000\000\000\000\000\000\000\000\000\000\000\000\000\000\000\000\000\000\000\000\000\000\000\000\000\000\000\000\000\000\000\000\000\000\000\000\000\000\000\000\000\000\000\000\000\000\000\000\000\000\000\000\000\000\000\000\000\000\000\000\000\000\000\000\000\000\000\000\000\000\000\000\000\000\000\000\000\000\000\000\000\000\000\000\000\000\000\000\000\000\000\000\000\000\000\000\000\000\000\000\000\000\000\000\000\000\000\000\000\000\000\000\000\000\000\000\000\000\000\000\000\000\000\000\000\000\000\000\000\000\000\000\000\000\000\000\000\000\000\000\000\000\000\000\000\000\000\000\000\000\000\000\000\000\000\000\000\000\000\000\000\000\000\000\000\000\000\000\000\000\000\000\000\000\000\000\000\000\000\000\000\000\000\000\000\000\000\000\000\000\000\000\000\000\000\000\000\000\000\000\000\000\000\000\000\000\000\000\000\000\000\000\000\000\000\000\000\000\000\000\000\000\000\000\000\000\000\000\000\000\000\000\000\000\000\000\000\000\000\000\000\000\000\000\000\000\000\000\000\000\000\000\000\000\000\000\000\000\000\000\000\000\000\000\000\000\000\000\000\000\000\000\000\000\000\000\000\000\000\000\000\000\000\000\000\000\000\000\000\000\000\000\000\000\000\000\000\000\000\000\000\000\000\000\000\000\000\000\000\000\000\000\000\000\000\000\000\000\000\000\000\000\000\000\000\000\000\000\000\000\000\000\000\000\000\000\000\000\000\000\000\000\000\000\000\000\000\000\000\000\000\000\000\000\000\000\000\000\000\000\000\000\000\000\000\000\000\000\000\000\000\000\000\000\000\000\000\000\000\000\000\000\000\000\000\000\000\000\000\000\000\000\000\000\000\000\000\000\000\000\000\000\000\000\000\000\000\000\000\000\000\000\000\000\000\000\000\000\000\000\000\000\000\000\000\000\000\000\000\000\000\000\000\000\000\000\000\000\000\000\000\000\000\000\000\000\000\000\000\000\000\000\000\000\000\000\000\000\000\000\000\000\000\000\000\000\000\000\000\000\000\000\000\000\000\000\000\000\000\000\000\000\000\000\000\000\000\000\000\000\000\000\000\000\000\000\000\000\000\000\000\000\000\000\000\000\000\000\000\000\000\000\000\000\000\000\000\000\000\000\000\000\000\000\000\000\000\000\000\000\000\000\000\000\000\000\000\000\000\000\000\000\000\000\000\000\000\000\000\000\000\000\000\000\000\000\000\000\000\000\000\000\000\000\000\000\000\000\000\000\000\000\000\000\000\000\000\000\000\000\000\000\000\000\000\000\000\000\000\000\000\000\000\000\000\000\000\000\000\000\000\000\000\000\000\000\000\000\000\000\000\000\000\000\000\000\000\000\000\000\000\000\000\000\000\000\000\000\000\000\000\000\000\000\000\000\000\000\000\000\000\000\000\000\000\000\000\000\000\000\000\000\000\000\000\000\000\000\000\000\000\000\000\000\000\000\000\000\000\000\000\000\000\000\000\000\000\000\000\000\000\000\000\000\000\000\000\000\000\000\000\000\000\000\000\000\000\000\000\000\000\000\000\000\000\000\000\000\000\000\000\000\000\000\000\000\000\000\000\000\000\000\000\000\000\000\000\000\000\000\000\000\000\000\000\000\000\000\000\000\000\000\000\000\000\000\000\000\000\000\000\000\000\000\000\000\000\000\000\000\000\000\000\000\000\000\000\000\000\000\000\000\000\000\000\000\000\000\000\000\000\000\000\000\000\000\000\000\000\000\000\000\000\000\000\000\000\000\000\000\000\000\000\000\000\000\000\000\000\000\000\000\000\000\000\000\000\000\000\000\000\000\000\000\000\000\000\000\000\000\000\000\000\000\000\000\000\000\000\000\000\000\000\000\000\000\000\000\000\000\000\000\000\000\000\000\000\000\000\000\000\000\000\000\000\000\000\000\000\000\000\000\000\000\000\000\000\000\000\000\000\000\000\000\000\000\000\000\000\000\000\000\000\000\000\000\000\000\000\000\000\000\000\000\000\000\000\000\000\000\000\000\000\000\000\000\000\000\000\000\000\000\000\000\000\000\000\000\000\000\000\000\000\000\000\000\000\000\000\000\000\000\000\000\000\000\000\000\000\000\000\000\000\000\000\000\000\000\000\000\000\000\000\000\000\000\000\000\000\000\000\000\000\000\000\000\000\000\000\000\000\000\000\000\000\000\000\000\000\000\000\000\000\000\000\000\000\000\000\000\000\000\000\000\000\000\000\000\000\000\000\000\000\000\000\000\000\000\000\000\000\000\000\000\000\000\000\000\000\000\000\000\000\000\000\000\000\000\000\000\000\000\000\000\000\000\000\000\000\000\000\000\000\000\000\000\000\000\000\000\000\000\000\000\000\000\000\000\000\000\000\000\000\000\000\000\000\000\000\000\000\000\000\000\000\000\000\000\000\000\000\000\000\000\000\000\000\000\000\000\000\000\000\000\000\000\000\000\000\000\000\000\000\000\000\000\000\000\000\000\000\000\000\000\000\000\000\000\000\000\000\000\000\000\000\000\000\000\000\000\000\000\000\000\000\000\000\000\000\000\000\000\000\000\000\000\000\000\000\000\000\000\000\000\000\000\000\000\000\000\000\000\000\000\000\000\000\000\000\000\000\000\000\000\000\000\000\000\000\000\000\000\000\000\000\000\000\000\000\000\000\000\000\000\000\000\000\000\000\000\000\000\000\000\000\000\000\000\000\000\000\000\000\000\000\000\000\000\000\000\000\000\000\000\000\000\000\000\000\000\000\000\000\000\000\000\000\000\000\000\000\000\000\000\000\000\000\000\000\000\000\000\000\000\000\000\000\000\000\000\000\000\000\000\000\000\000\000\000\000\000\000\000\000\000\000\000\000\000\000\000\000\000\000\000\000\000\000\000\000\000\000\000\000\000\000\000\000\000\000\000\000\000\000\000\000\000\000\000\000\000\000\000\000\000\000\000\000\000\000\000\000\000\000\000\000\000\000\000\000\000\000\000\000\000\000\000\000\000\000\000\000\000\000\000\000\000\000\000\000\000\000\000\000\000\000\000\000\000\000\000\000\000\000\000\000\000\000\000\000\000\000\000\000\000\000\000\000\000\000\000\000\000\000\000\000\000\000\000\000\000\000\000\000\000\000\000\000\000\000\000\000\000\000\000\000\000\000\000\000\000\000\000\000\000\000\000\000\000\000\000\000\000\000\000\000\000\000\000\000\000\000\000\000\000\000\000\000\000\000\000\000\000\000\000\000\000\000\000\000\000\000\000\000\000\000\000\000\000\000\000\000\000\000\000\000\000\000\000\000\000\000\000\000\000\000\000\000\000\000\000\000\000\000\000\000\000\000\000\000\000\000\000\000\000\000\000\000\000\000\000\000\000\000\000\000\000\000\000\000\000\000\000\000\000\000\000\000\000\000\000\000\000\000\000\000\000\000\000\000\000\000\000\000\000\000\000\000\000\000\000\000\000\000\000\000\000\000\000\000\000\000\000\000\000\000\000\000\000\000\000\000\000\000\000\000\000\000\000\000\000\000\000\000\000\000\000\000\000\000\000\000\000\000\000\000\000\000\000\000\000\000\000\000\000\000\000\000\000\000\000\000\000\000\000\000\000\000\000\000\000\000\000\000\000\000\000\000\000\000\000\000\000\000\000\000\000\000\000\000\000\000\000\000\000\000\000\000\000\000\000\000\000\000\000\000\000\000\000\000\000\000\000\000\000\000\000\000\000\000\000\000\000\000\000\000\000\000\000\000\000\000\000\000\000\000\000\000\000\000\000\000\000\000\000\000\000\000\000\000\000\000\000\000\000\000\000\000\000\000\000\000\000\000\000\000\000\000\000\000\000\000\000\000\000\000\000\000\000\000\000\000\000\000\000\000\000\000\000\000\000\000\000\000\000\000\000\000\000\000\000\000\000\000\000\000\000\000\000\000\000\000\000\000\000\000\000\000\000\000\000\000\000\000\000\000\000\000\000\000\000\000\000\000\000\000\000\000\000\000\000\000\000\000\000\000\000\000\000\000\000\000\000\000\000\006\000\000\000\000\000\000\000p\002\000\000\000\000\000\000\013\000\000\000\000\000\000\000\030\000\000\000\000\000\000\000\005\000\000\000\000\000\000\000 \003\000\000\000\000\000\000\n\000\000\000\000\000\000\0000\000\000\000\000\000\000\000\365\376\377o\000\000\000\000\320\002\000\000\000\000\000\000\004\000\000\000\000\000\000\000\370\002\000\000\000\000\000\000\000\000\000\000\000\000\000\000\000\000\000\000\000\000\000\000Linker: LLD 9.0.0 (https://github.com/ROCm-Developer-Tools/llvm-project fb40b6f5f601a92a7133aaa2109778c5adf2be47)\000clang version 9.0.0 (https://github.com/ROCm-Developer-Tools/llvm-project fb40b6f5f601a92a7133aaa2109778c5adf2be47)\000\000\000\000\000\000\000\000\000\000\000\000\000\000\000\000\000\000\000\000\000\000\000\000\000\000\0000\000\000\000\000\002\007\000\000\020\000\000\000\000\000\000\000\000\000\000\000\000\000\000\001\000\000\000!\003\b\000\000 \000\000\000\000\000\000\000\000@\000\000\000\000\000\023\000\000\000!\003\b\000\000 @\000\000\000\000\000\000\000\004\000\000\000\000\000*\000\000\000\021\003\b\000\000 D\000\000\000\000\000\b\000\000\000\000\000\000\000\000.note\000.dynsym\000.gnu.hash\000.hash\000.dynstr\000.text\000.dynamic\000.bss\000.comment\000.symtab\000.shstrtab\000.strtab\000\000__hip_device_heap\000__hip_device_page_flag\000stuff\000_DYNAMIC\000\000\000\000\000\000\000\000\000\000\000\000\000\000\000\000\000\000\000\000\000\000\000\000\000\000\000\000\000\000\000\000\000\000\000\000\000\000\000\000\000\000\000\000\000\000\000\000\000\000\000\000\000\000\000\000\000\000\000\000\000\000\000\000\000\000\001\000\000\000\007\000\000\000\002\000\000\000\000\000\000\0008\002\000\000\000\000\000\0008\002\000\000\000\000\000\0008\000\000\000\000\000\000\000\000\000\000\000\000\000\000\000\004\000\000\000\000\000\000\000\000\000\000\000\000\000\000\000\007\000\000\000\013\000\000\000\002\000\000\000\000\000\000\000p\002\000\000\000\000\000\000p\002\000\000\000\000\000\000`\000\000\000\000\000\000\000\005\000\000\000\001\000\000\000\b\000\000\000\000\000\000\000\030\000\000\000\000\000\000\000\017\000\000\000\366\377\377o\002\000\000\000\000\000\000\000\320\002\000\000\000\000\000\000\320\002\000\000\000\000\000\000(\000\000\000\000\000\000\000\002\000\000\000\000\000\000\000\b\000\000\000\000\000\000\000\000\000\000\000\000\000\000\000\031\000\000\000\005\000\000\000\002\000\000\000\000\000\000\000\370\002\000\000\000\000\000\000\370\002\000\000\000\000\000\000(\000\000\000\000\000\000\000\002\000\000\000\000\000\000\000\004\000\000\000\000\000\000\000\004\000\000\000\000\000\000\000\037\000\000\000\003\000\000\000\002\000\000\000\000\000\000\000 \003\000\000\000\000\000\000 \003\000\000\000\000\000\0000\000\000\000\000\000\000\000\000\000\000\000\000\000\000\000\001\000\000\000\000\000\000\000\000\000\000\000\000\000\000\000'\000\000\000\001\000\000\000\006\000\000\000\000\000\000\000\000\020\000\000\000\000\000\000\000\020\000\000\000\000\000\000\000\000\000\000\000\000\000\000\000\000\000\000\000\000\000\000\004\000\000\000\000\000\000\000\000\000\000\000\000\000\000\000-\000\000\000\006\000\000\000\003\000\000\000\000\000\000\000\000\020\000\000\000\000\000\000\000\020\000\000\000\000\000\000p\000\000\000\000\000\000\000\005\000\000\000\000\000\000\000\b\000\000\000\000\000\000\000\020\000\000\000\000\000\000\0006\000\000\000\b\000\000\000\003\000\000\000\000\000\000\000\000 \000\000\000\000\000\000p\020\000\000\000\000\000\000\b\000D\000\000\000\000\000\000\000\000\000\000\000\000\000\020\000\000\000\000\000\000\000\000\000\000\000\000\000\000\000;\000\000\000\001\000\000\0000\000\000\000\000\000\000\000\000\000\000\000\000\000\000\000p\020\000\000\000\000\000\000\347\000\000\000\000\000\000\000\000\000\000\000\000\000\000\000\001\000\000\000\000\000\000\000\001\000\000\000\000\000\000\000D\000\000\000\002\000\000\000\000\000\000\000\000\000\000\000\000\000\000\000\000\000\000\000X\021\000\000\000\000\000\000x\000\000\000\000\000\000\000\f\000\000\000\002\000\000\000\b\000\000\000\000\000\000\000\030\000\000\000\000\000\000\000L\000\000\000\003\000\000\000\000\000\000\000\000\000\000\000\000\000\000\000\000\000\000\000\320\021\000\000\000\000\000\000^\000\000\000\000\000\000\000\000\000\000\000\000\000\000\000\001\000\000\000\000\000\000\000\000\000\000\000\000\000\000\000V\000\000\000\003\000\000\000\000\000\000\000\000\000\000\000\000\000\000\000\000\000\000\000.\022\000\000\000\000\000\0009\000\000\000\000\000\000\000\000\000\000\000\000\000\000\000\001\000\000\000\000\000\000\000\000\000\000\000\000\000\000\000"
	.size	.L__unnamed_4, 5678

	.type	__hip_fatbin_wrapper,@object # @__hip_fatbin_wrapper
	.section	.hipFatBinSegment,"a",@progbits
	.p2align	3
__hip_fatbin_wrapper:
	.long	1212764230              # 0x48495046
	.long	1                       # 0x1
	.quad	.L__unnamed_4
	.quad	0
	.size	__hip_fatbin_wrapper, 24

	.type	__hip_gpubin_handle,@object # @__hip_gpubin_handle
	.local	__hip_gpubin_handle
	.comm	__hip_gpubin_handle,8,8
	.section	.init_array,"aw",@init_array
	.p2align	3
	.quad	__hip_module_ctor
	.type	.Lstr,@object           # @str
	.section	.rodata.str1.1,"aMS",@progbits,1
.Lstr:
	.asciz	"Compute mode is prohibited"
	.size	.Lstr, 27

	.type	.Lstr.1,@object         # @str.1
.Lstr.1:
	.asciz	"No compute device available"
	.size	.Lstr.1, 28

	.type	.Lstr.2,@object         # @str.2
.Lstr.2:
	.asciz	"Array content before kernel:"
	.size	.Lstr.2, 29

	.type	.Lstr.3,@object         # @str.3
.Lstr.3:
	.asciz	"Unable to allocate device memory"
	.size	.Lstr.3, 33

	.type	.Lstr.4,@object         # @str.4
.Lstr.4:
	.asciz	"Unable to copy memory from device to host"
	.size	.Lstr.4, 42

	.type	.Lstr.5,@object         # @str.5
.Lstr.5:
	.asciz	"Array content after kernel:"
	.size	.Lstr.5, 28


	.ident	"clang version 9.0.0 (https://github.com/ROCm-Developer-Tools/llvm-project fb40b6f5f601a92a7133aaa2109778c5adf2be47)"
	.section	".note.GNU-stack","",@progbits
	.addrsig
	.addrsig_sym __hip_module_ctor
	.addrsig_sym __hip_module_dtor
	.addrsig_sym __hip_device_heap
	.addrsig_sym __hip_device_page_flag
	.addrsig_sym stuff
	.addrsig_sym .L__unnamed_4
	.addrsig_sym __hip_fatbin_wrapper
